target datalayout = "e-m:e-p270:32:32-p271:32:32-p272:64:64-i64:64-i128:128-f80:128-n8:16:32:64-S128"
target triple = "x86_64-pc-linux-gnu"

%struct._php_output_context = type { i32, %struct._php_output_buffer, %struct._php_output_buffer }
%struct._php_output_buffer = type { ptr, i64, i64, i32 }

; Function Attrs: inlinehint nounwind uwtable
define internal void @php_output_context_pass(ptr noundef %0) #1 {
  %2 = alloca ptr, align 8
  store ptr %0, ptr %2, align 8, !tbaa !69
  %3 = load ptr, ptr %2, align 8, !tbaa !69
  %4 = getelementptr inbounds nuw %struct._php_output_context, ptr %3, i32 0, i32 1
  %5 = getelementptr inbounds nuw %struct._php_output_buffer, ptr %4, i32 0, i32 0
  %6 = load ptr, ptr %5, align 8, !tbaa !61
  %7 = load ptr, ptr %2, align 8, !tbaa !69
  %8 = getelementptr inbounds nuw %struct._php_output_context, ptr %7, i32 0, i32 2
  %9 = getelementptr inbounds nuw %struct._php_output_buffer, ptr %8, i32 0, i32 0
  store ptr %6, ptr %9, align 8, !tbaa !67
  %10 = load ptr, ptr %2, align 8, !tbaa !69
  %11 = getelementptr inbounds nuw %struct._php_output_context, ptr %10, i32 0, i32 1
  %12 = getelementptr inbounds nuw %struct._php_output_buffer, ptr %11, i32 0, i32 2
  %13 = load i64, ptr %12, align 8, !tbaa !64
  %14 = load ptr, ptr %2, align 8, !tbaa !69
  %15 = getelementptr inbounds nuw %struct._php_output_context, ptr %14, i32 0, i32 2
  %16 = getelementptr inbounds nuw %struct._php_output_buffer, ptr %15, i32 0, i32 2
  store i64 %13, ptr %16, align 8, !tbaa !68
  %17 = load ptr, ptr %2, align 8, !tbaa !69
  %18 = getelementptr inbounds nuw %struct._php_output_context, ptr %17, i32 0, i32 1
  %19 = getelementptr inbounds nuw %struct._php_output_buffer, ptr %18, i32 0, i32 1
  %20 = load i64, ptr %19, align 8, !tbaa !127
  %21 = load ptr, ptr %2, align 8, !tbaa !69
  %22 = getelementptr inbounds nuw %struct._php_output_context, ptr %21, i32 0, i32 2
  %23 = getelementptr inbounds nuw %struct._php_output_buffer, ptr %22, i32 0, i32 1
  store i64 %20, ptr %23, align 8, !tbaa !128
  %24 = load ptr, ptr %2, align 8, !tbaa !69
  %25 = getelementptr inbounds nuw %struct._php_output_context, ptr %24, i32 0, i32 1
  %26 = getelementptr inbounds nuw %struct._php_output_buffer, ptr %25, i32 0, i32 3
  %27 = load i32, ptr %26, align 8
  %28 = and i32 %27, 1
  %29 = load ptr, ptr %2, align 8, !tbaa !69
  %30 = getelementptr inbounds nuw %struct._php_output_context, ptr %29, i32 0, i32 2
  %31 = getelementptr inbounds nuw %struct._php_output_buffer, ptr %30, i32 0, i32 3
  %32 = load i32, ptr %31, align 8
  %33 = and i32 %28, 1
  %34 = and i32 %32, -2
  %35 = or i32 %34, %33
  store i32 %35, ptr %31, align 8
  %36 = load ptr, ptr %2, align 8, !tbaa !69
  %37 = getelementptr inbounds nuw %struct._php_output_context, ptr %36, i32 0, i32 1
  %38 = getelementptr inbounds nuw %struct._php_output_buffer, ptr %37, i32 0, i32 0
  store ptr null, ptr %38, align 8, !tbaa !61
  %39 = load ptr, ptr %2, align 8, !tbaa !69
  %40 = getelementptr inbounds nuw %struct._php_output_context, ptr %39, i32 0, i32 1
  %41 = getelementptr inbounds nuw %struct._php_output_buffer, ptr %40, i32 0, i32 2
  store i64 0, ptr %41, align 8, !tbaa !64
  %42 = load ptr, ptr %2, align 8, !tbaa !69
  %43 = getelementptr inbounds nuw %struct._php_output_context, ptr %42, i32 0, i32 1
  %44 = getelementptr inbounds nuw %struct._php_output_buffer, ptr %43, i32 0, i32 3
  %45 = load i32, ptr %44, align 8
  %46 = and i32 %45, -2
  %47 = or i32 %46, 0
  store i32 %47, ptr %44, align 8
  %48 = load ptr, ptr %2, align 8, !tbaa !69
  %49 = getelementptr inbounds nuw %struct._php_output_context, ptr %48, i32 0, i32 1
  %50 = getelementptr inbounds nuw %struct._php_output_buffer, ptr %49, i32 0, i32 1
  store i64 0, ptr %50, align 8, !tbaa !127
  ret void
}

; Function Attrs: nounwind uwtable
define internal i32 @php_output_handler_compat_func(ptr noundef %0, ptr noundef %1) #0 {
  %3 = alloca i32, align 4
  %4 = alloca ptr, align 8
  %5 = alloca ptr, align 8
  %6 = alloca ptr, align 8
  %7 = alloca ptr, align 8
  %8 = alloca i64, align 8
  %9 = alloca i32, align 4
  store ptr %0, ptr %4, align 8, !tbaa !4
  store ptr %1, ptr %5, align 8, !tbaa !69
  call void @llvm.lifetime.start.p0(i64 8, ptr %6) #15
  %10 = load ptr, ptr %4, align 8, !tbaa !4
  %11 = load ptr, ptr %10, align 8, !tbaa !4
  store ptr %11, ptr %6, align 8, !tbaa !4
  %12 = load ptr, ptr %6, align 8, !tbaa !4
  %13 = icmp ne ptr %12, null
  br i1 %13, label %14, label %47

14:                                               ; preds = %2
  call void @llvm.lifetime.start.p0(i64 8, ptr %7) #15
  store ptr null, ptr %7, align 8, !tbaa !15
  call void @llvm.lifetime.start.p0(i64 8, ptr %8) #15
  store i64 0, ptr %8, align 8, !tbaa !17
  %15 = load ptr, ptr %6, align 8, !tbaa !4
  %16 = load ptr, ptr %5, align 8, !tbaa !69
  %17 = getelementptr inbounds nuw %struct._php_output_context, ptr %16, i32 0, i32 1
  %18 = getelementptr inbounds nuw %struct._php_output_buffer, ptr %17, i32 0, i32 0
  %19 = load ptr, ptr %18, align 8, !tbaa !61
  %20 = load ptr, ptr %5, align 8, !tbaa !69
  %21 = getelementptr inbounds nuw %struct._php_output_context, ptr %20, i32 0, i32 1
  %22 = getelementptr inbounds nuw %struct._php_output_buffer, ptr %21, i32 0, i32 2
  %23 = load i64, ptr %22, align 8, !tbaa !64
  %24 = load ptr, ptr %5, align 8, !tbaa !69
  %25 = getelementptr inbounds nuw %struct._php_output_context, ptr %24, i32 0, i32 0
  %26 = load i32, ptr %25, align 8, !tbaa !71
  call void %15(ptr noundef %19, i64 noundef %23, ptr noundef %7, ptr noundef %8, i32 noundef %26)
  %27 = load ptr, ptr %7, align 8, !tbaa !15
  %28 = icmp ne ptr %27, null
  br i1 %28, label %29, label %44

29:                                               ; preds = %14
  %30 = load ptr, ptr %7, align 8, !tbaa !15
  %31 = load ptr, ptr %5, align 8, !tbaa !69
  %32 = getelementptr inbounds nuw %struct._php_output_context, ptr %31, i32 0, i32 2
  %33 = getelementptr inbounds nuw %struct._php_output_buffer, ptr %32, i32 0, i32 0
  store ptr %30, ptr %33, align 8, !tbaa !67
  %34 = load i64, ptr %8, align 8, !tbaa !17
  %35 = load ptr, ptr %5, align 8, !tbaa !69
  %36 = getelementptr inbounds nuw %struct._php_output_context, ptr %35, i32 0, i32 2
  %37 = getelementptr inbounds nuw %struct._php_output_buffer, ptr %36, i32 0, i32 2
  store i64 %34, ptr %37, align 8, !tbaa !68
  %38 = load ptr, ptr %5, align 8, !tbaa !69
  %39 = getelementptr inbounds nuw %struct._php_output_context, ptr %38, i32 0, i32 2
  %40 = getelementptr inbounds nuw %struct._php_output_buffer, ptr %39, i32 0, i32 3
  %41 = load i32, ptr %40, align 8
  %42 = and i32 %41, -2
  %43 = or i32 %42, 1
  store i32 %43, ptr %40, align 8
  br label %46

44:                                               ; preds = %14
  %45 = load ptr, ptr %5, align 8, !tbaa !69
  call void @php_output_context_pass(ptr noundef %45)
  br label %46

46:                                               ; preds = %44, %29
  store i32 0, ptr %3, align 4
  store i32 1, ptr %9, align 4
  call void @llvm.lifetime.end.p0(i64 8, ptr %8) #15
  call void @llvm.lifetime.end.p0(i64 8, ptr %7) #15
  br label %48

47:                                               ; preds = %2
  store i32 -1, ptr %3, align 4
  store i32 1, ptr %9, align 4
  br label %48

48:                                               ; preds = %47, %46
  call void @llvm.lifetime.end.p0(i64 8, ptr %6) #15
  %49 = load i32, ptr %3, align 4
  ret i32 %49
}