; Function Attrs: nounwind uwtable
define internal range(i32 -1, 1) i32 @php_output_handler_compat_func(ptr noundef readonly captures(none) %0, ptr noundef captures(none) %1) #0 {
  %3 = alloca ptr, align 8
  %4 = alloca i64, align 8
  %5 = load ptr, ptr %0, align 8, !tbaa !4
  %.not = icmp eq ptr %5, null
  br i1 %.not, label %37, label %6

6:                                                ; preds = %2
  call void @llvm.lifetime.start.p0(i64 8, ptr nonnull %3) #22
  store ptr null, ptr %3, align 8, !tbaa !84
  call void @llvm.lifetime.start.p0(i64 8, ptr nonnull %4) #22
  store i64 0, ptr %4, align 8, !tbaa !87
  %7 = getelementptr inbounds nuw i8, ptr %1, i64 8
  %8 = load ptr, ptr %7, align 8, !tbaa !52
  %9 = getelementptr inbounds nuw i8, ptr %1, i64 24
  %10 = load i64, ptr %9, align 8, !tbaa !53
  %11 = load i32, ptr %1, align 8, !tbaa !49
  call void %5(ptr noundef %8, i64 noundef %10, ptr noundef nonnull %3, ptr noundef nonnull %4, i32 noundef %11) #22
  %12 = load ptr, ptr %3, align 8, !tbaa !84
  %.not12 = icmp eq ptr %12, null
  br i1 %.not12, label %20, label %13

13:                                               ; preds = %6
  %14 = getelementptr inbounds nuw i8, ptr %1, i64 40
  store ptr %12, ptr %14, align 8, !tbaa !56
  %15 = load i64, ptr %4, align 8, !tbaa !87
  %16 = getelementptr inbounds nuw i8, ptr %1, i64 56
  store i64 %15, ptr %16, align 8, !tbaa !57
  %17 = getelementptr inbounds nuw i8, ptr %1, i64 64
  %18 = load i32, ptr %17, align 8
  %19 = or i32 %18, 1
  store i32 %19, ptr %17, align 8
  br label %36

20:                                               ; preds = %6
  %21 = load ptr, ptr %7, align 8, !tbaa !52
  %22 = getelementptr inbounds nuw i8, ptr %1, i64 40
  store ptr %21, ptr %22, align 8, !tbaa !56
  %23 = load i64, ptr %9, align 8, !tbaa !53
  %24 = getelementptr inbounds nuw i8, ptr %1, i64 56
  store i64 %23, ptr %24, align 8, !tbaa !57
  %25 = getelementptr inbounds nuw i8, ptr %1, i64 16
  %26 = load i64, ptr %25, align 8, !tbaa !77
  %27 = getelementptr inbounds nuw i8, ptr %1, i64 48
  store i64 %26, ptr %27, align 8, !tbaa !58
  %28 = getelementptr inbounds nuw i8, ptr %1, i64 32
  %29 = load i32, ptr %28, align 8
  %30 = and i32 %29, 1
  %31 = getelementptr inbounds nuw i8, ptr %1, i64 64
  %32 = load i32, ptr %31, align 8
  %33 = and i32 %32, -2
  %34 = or disjoint i32 %33, %30
  store i32 %34, ptr %31, align 8
  store ptr null, ptr %7, align 8, !tbaa !52
  store i64 0, ptr %9, align 8, !tbaa !53
  %35 = and i32 %29, -2
  store i32 %35, ptr %28, align 8
  store i64 0, ptr %25, align 8, !tbaa !77
  br label %36

36:                                               ; preds = %20, %13
  call void @llvm.lifetime.end.p0(i64 8, ptr nonnull %4) #22
  call void @llvm.lifetime.end.p0(i64 8, ptr nonnull %3) #22
  br label %37

37:                                               ; preds = %2, %36
  %.0 = phi i32 [ 0, %36 ], [ -1, %2 ]
  ret i32 %.0
}